target datalayout = "e-m:e-p270:32:32-p271:32:32-p272:64:64-i64:64-i128:128-f80:128-n8:16:32:64-S128"
target triple = "x86_64-pc-linux-gnu"

%class.b3GpuNarrowPhase = type { ptr, ptr, i32, i32, i32, ptr, ptr, ptr }
%struct.b3GpuNarrowPhaseInternalData = type { ptr, %class.b3AlignedObjectArray, %class.b3AlignedObjectArray.0, %class.b3AlignedObjectArray.0, %class.b3AlignedObjectArray.2, ptr, ptr, ptr, ptr, ptr, ptr, ptr, ptr, ptr, %class.b3AlignedObjectArray.4, ptr, %class.b3AlignedObjectArray.6, ptr, ptr, ptr, [2 x ptr], i32, ptr, ptr, ptr, ptr, ptr, i32, i32, %class.b3AlignedObjectArray.8, ptr, ptr, ptr, %class.b3AlignedObjectArray.10, %class.b3AlignedObjectArray.12, %class.b3AlignedObjectArray.14, %class.b3AlignedObjectArray.16, %class.b3AlignedObjectArray.18, ptr, ptr, ptr, %struct.b3Config }
%class.b3AlignedObjectArray = type <{ [4 x i8], i32, i32, [4 x i8], ptr, i8, [7 x i8] }>
%class.b3AlignedObjectArray.0 = type <{ [4 x i8], i32, i32, [4 x i8], ptr, i8, [7 x i8] }>
%class.b3AlignedObjectArray.2 = type <{ [4 x i8], i32, i32, [4 x i8], ptr, i8, [7 x i8] }>
%class.b3AlignedObjectArray.4 = type <{ [4 x i8], i32, i32, [4 x i8], ptr, i8, [7 x i8] }>
%class.b3AlignedObjectArray.6 = type <{ [4 x i8], i32, i32, [4 x i8], ptr, i8, [7 x i8] }>
%class.b3AlignedObjectArray.8 = type <{ [4 x i8], i32, i32, [4 x i8], ptr, i8, [7 x i8] }>
%class.b3AlignedObjectArray.10 = type <{ [4 x i8], i32, i32, [4 x i8], ptr, i8, [7 x i8] }>
%class.b3AlignedObjectArray.12 = type <{ [4 x i8], i32, i32, [4 x i8], ptr, i8, [7 x i8] }>
%class.b3AlignedObjectArray.14 = type <{ [4 x i8], i32, i32, [4 x i8], ptr, i8, [7 x i8] }>
%class.b3AlignedObjectArray.16 = type <{ [4 x i8], i32, i32, [4 x i8], ptr, i8, [7 x i8] }>
%class.b3AlignedObjectArray.18 = type <{ [4 x i8], i32, i32, [4 x i8], ptr, i8, [7 x i8] }>
%struct.b3Config = type { i32, i32, i32, i32, i32, i32, i32, i32, i32, i32, i32, i32 }
%struct.b3Collidable = type { %union.anon.66, %union.anon.67, i32, %union.anon.68 }
%union.anon.66 = type { i32 }
%union.anon.67 = type { float }
%union.anon.68 = type { i32 }

@.str = private unnamed_addr constant [17 x i8] c"b3Error[%s,%d]:\0A\00", align 1
@.str.1 = private unnamed_addr constant [142 x i8] c"generated/home/dtcxzyw/WorkSpace/Projects/compilers/llvm-opt-benchmark/bench/bullet3/bullet3/src/Bullet3OpenCL/RigidBody/b3GpuNarrowPhase.cpp\00", align 1
@.str.2 = private unnamed_addr constant [36 x i8] c"allocateCollidable out-of-range %d\0A\00", align 1

; Function Attrs: inlinehint mustprogress nounwind uwtable
define linkonce_odr dso_local noundef i32 @_ZNK20b3AlignedObjectArrayI12b3CollidableE4sizeEv(ptr noundef nonnull align 8 dereferenceable(25) %0) #9 comdat align 2 {
  %2 = alloca ptr, align 8
  store ptr %0, ptr %2, align 8, !tbaa !198
  %3 = load ptr, ptr %2, align 8
  %4 = getelementptr inbounds nuw %class.b3AlignedObjectArray.8, ptr %3, i32 0, i32 1
  %5 = load i32, ptr %4, align 4, !tbaa !201
  ret i32 %5
}

; Function Attrs: mustprogress uwtable
define dso_local noundef i32 @_ZN16b3GpuNarrowPhase18allocateCollidableEv(ptr noundef nonnull align 8 dereferenceable(56) %0) #0 align 2 {
  %2 = alloca i32, align 4
  %3 = alloca ptr, align 8
  %4 = alloca i32, align 4
  %5 = alloca %struct.b3Collidable, align 4
  %6 = alloca i32, align 4
  store ptr %0, ptr %3, align 8, !tbaa !4
  %7 = load ptr, ptr %3, align 8
  call void @llvm.lifetime.start.p0(i64 4, ptr %4) #16
  %8 = getelementptr inbounds nuw %class.b3GpuNarrowPhase, ptr %7, i32 0, i32 1
  %9 = load ptr, ptr %8, align 8, !tbaa !19
  %10 = getelementptr inbounds nuw %struct.b3GpuNarrowPhaseInternalData, ptr %9, i32 0, i32 29
  %11 = call noundef i32 @_ZNK20b3AlignedObjectArrayI12b3CollidableE4sizeEv(ptr noundef nonnull align 8 dereferenceable(25) %10)
  store i32 %11, ptr %4, align 4, !tbaa !85
  %12 = load i32, ptr %4, align 4, !tbaa !85
  %13 = getelementptr inbounds nuw %class.b3GpuNarrowPhase, ptr %7, i32 0, i32 1
  %14 = load ptr, ptr %13, align 8, !tbaa !19
  %15 = getelementptr inbounds nuw %struct.b3GpuNarrowPhaseInternalData, ptr %14, i32 0, i32 41
  %16 = getelementptr inbounds nuw %struct.b3Config, ptr %15, i32 0, i32 1
  %17 = load i32, ptr %16, align 4, !tbaa !353
  %18 = icmp slt i32 %12, %17
  br i1 %18, label %19, label %25

19:                                               ; preds = %1
  %20 = getelementptr inbounds nuw %class.b3GpuNarrowPhase, ptr %7, i32 0, i32 1
  %21 = load ptr, ptr %20, align 8, !tbaa !19
  %22 = getelementptr inbounds nuw %struct.b3GpuNarrowPhaseInternalData, ptr %21, i32 0, i32 29
  call void @llvm.lifetime.start.p0(i64 16, ptr %5) #16
  call void @llvm.memset.p0.i64(ptr align 4 %5, i8 0, i64 16, i1 false)
  %23 = call noundef nonnull align 4 dereferenceable(16) ptr @_ZN20b3AlignedObjectArrayI12b3CollidableE6expandERKS0_(ptr noundef nonnull align 8 dereferenceable(25) %22, ptr noundef nonnull align 4 dereferenceable(16) %5)
  call void @llvm.lifetime.end.p0(i64 16, ptr %5) #16
  %24 = load i32, ptr %4, align 4, !tbaa !85
  store i32 %24, ptr %2, align 4
  store i32 1, ptr %6, align 4
  br label %35

25:                                               ; preds = %1
  br label %26

26:                                               ; preds = %25
  call void (ptr, ...) @b3OutputErrorMessageVarArgsInternal(ptr noundef @.str, ptr noundef @.str.1, i32 noundef 154)
  %27 = getelementptr inbounds nuw %class.b3GpuNarrowPhase, ptr %7, i32 0, i32 1
  %28 = load ptr, ptr %27, align 8, !tbaa !19
  %29 = getelementptr inbounds nuw %struct.b3GpuNarrowPhaseInternalData, ptr %28, i32 0, i32 41
  %30 = getelementptr inbounds nuw %struct.b3Config, ptr %29, i32 0, i32 1
  %31 = load i32, ptr %30, align 4, !tbaa !353
  call void (ptr, ...) @b3OutputErrorMessageVarArgsInternal(ptr noundef @.str.2, i32 noundef %31)
  br label %32

32:                                               ; preds = %26
  br label %33

33:                                               ; preds = %32
  br label %34

34:                                               ; preds = %33
  store i32 -1, ptr %2, align 4
  store i32 1, ptr %6, align 4
  br label %35

35:                                               ; preds = %34, %19
  call void @llvm.lifetime.end.p0(i64 4, ptr %4) #16
  %36 = load i32, ptr %2, align 4
  ret i32 %36
}