; Function Attrs: mustprogress uwtable
define dso_local noundef range(i32 -2147483648, 2147483647) i32 @_ZN16b3GpuNarrowPhase18allocateCollidableEv(ptr noundef nonnull readonly align 8 captures(none) dereferenceable(56) %0) local_unnamed_addr #0 align 2 {
  %2 = alloca %struct.b3Collidable, align 4
  %3 = getelementptr inbounds nuw i8, ptr %0, i64 8
  %4 = load ptr, ptr %3, align 8, !tbaa !7
  %5 = getelementptr inbounds nuw i8, ptr %4, i64 380
  %6 = load i32, ptr %5, align 4, !tbaa !121
  %7 = getelementptr inbounds nuw i8, ptr %4, i64 620
  %8 = load i32, ptr %7, align 4, !tbaa !334
  %9 = icmp slt i32 %6, %8
  br i1 %9, label %10, label %13

10:                                               ; preds = %1
  %11 = getelementptr inbounds nuw i8, ptr %4, i64 376
  call void @llvm.lifetime.start.p0(i64 16, ptr nonnull %2) #18
  call void @llvm.memset.p0.i64(ptr noundef nonnull align 4 dereferenceable(16) %2, i8 0, i64 16, i1 false)
  %12 = call noundef nonnull align 4 dereferenceable(16) ptr @_ZN20b3AlignedObjectArrayI12b3CollidableE6expandERKS0_(ptr noundef nonnull align 8 dereferenceable(25) %11, ptr noundef nonnull align 4 dereferenceable(16) %2)
  call void @llvm.lifetime.end.p0(i64 16, ptr nonnull %2) #18
  br label %17

13:                                               ; preds = %1
  tail call void (ptr, ...) @b3OutputErrorMessageVarArgsInternal(ptr noundef nonnull @.str, ptr noundef nonnull @.str.1, i32 noundef 154)
  %14 = load ptr, ptr %3, align 8, !tbaa !7
  %15 = getelementptr inbounds nuw i8, ptr %14, i64 620
  %16 = load i32, ptr %15, align 4, !tbaa !334
  tail call void (ptr, ...) @b3OutputErrorMessageVarArgsInternal(ptr noundef nonnull @.str.2, i32 noundef %16)
  br label %17

17:                                               ; preds = %13, %10
  %.0 = phi i32 [ %6, %10 ], [ -1, %13 ]
  ret i32 %.0
}